target datalayout = "e-m:e-p270:32:32-p271:32:32-p272:64:64-i64:64-i128:128-f80:128-n8:16:32:64-S128"
target triple = "x86_64-pc-linux-gnu"

%"class.std::basic_string_view" = type { i64, ptr }
%"class.std::__cxx11::basic_string" = type { %"struct.std::__cxx11::basic_string<char>::_Alloc_hider", i64, %union.anon }
%"struct.std::__cxx11::basic_string<char>::_Alloc_hider" = type { ptr }
%union.anon = type { i64, [8 x i8] }
%"struct.toml::v3::source_position" = type { i32, i32 }
%"struct.toml::v3::source_region" = type { %"struct.toml::v3::source_position", %"struct.toml::v3::source_position", %"class.std::shared_ptr" }
%"class.std::shared_ptr" = type { %"class.std::__shared_ptr" }
%"class.std::__shared_ptr" = type { ptr, %"class.std::__shared_count" }
%"class.std::__shared_count" = type { ptr }
%"class.toml::v3::node" = type { ptr, %"struct.toml::v3::source_region" }
%"class.toml::v3::table" = type <{ %"class.toml::v3::node", %"class.std::map", i8, [7 x i8] }>
%"class.std::map" = type { %"class.std::_Rb_tree" }
%"class.std::_Rb_tree" = type { %"struct.std::_Rb_tree<toml::v3::key, std::pair<const toml::v3::key, std::unique_ptr<toml::v3::node>>, std::_Select1st<std::pair<const toml::v3::key, std::unique_ptr<toml::v3::node>>>, std::less<void>>::_Rb_tree_impl" }
%"struct.std::_Rb_tree<toml::v3::key, std::pair<const toml::v3::key, std::unique_ptr<toml::v3::node>>, std::_Select1st<std::pair<const toml::v3::key, std::unique_ptr<toml::v3::node>>>, std::less<void>>::_Rb_tree_impl" = type { [8 x i8], %"struct.std::_Rb_tree_header" }
%"struct.std::_Rb_tree_header" = type { %"struct.std::_Rb_tree_node_base", i64 }
%"struct.std::_Rb_tree_node_base" = type { i32, ptr, ptr, ptr }
%"class.toml::v3::impl::impl_ex::parser" = type { %"class.(anonymous namespace)::utf8_buffered_reader", %"class.toml::v3::table", %"struct.toml::v3::source_position", ptr, %"class.std::vector.45", %"class.std::vector.45", %"class.std::vector.45", %"class.std::vector.50", %"struct.(anonymous namespace)::parse_key_buffer", %"class.std::__cxx11::basic_string", %"class.std::__cxx11::basic_string", i8, i8, %"class.std::basic_string_view", i64 }
%"class.(anonymous namespace)::utf8_buffered_reader" = type { ptr, %struct.anon, ptr, i64 }
%struct.anon = type { [127 x %"struct.(anonymous namespace)::utf8_codepoint"], i64, i64 }
%"struct.(anonymous namespace)::utf8_codepoint" = type { i32, [4 x i8], i64, %"struct.toml::v3::source_position" }
%"class.std::vector.45" = type { %"struct.std::_Vector_base.46" }
%"struct.std::_Vector_base.46" = type { %"struct.std::_Vector_base<toml::v3::table *, std::allocator<toml::v3::table *>>::_Vector_impl" }
%"struct.std::_Vector_base<toml::v3::table *, std::allocator<toml::v3::table *>>::_Vector_impl" = type { %"struct.std::_Vector_base<toml::v3::table *, std::allocator<toml::v3::table *>>::_Vector_impl_data" }
%"struct.std::_Vector_base<toml::v3::table *, std::allocator<toml::v3::table *>>::_Vector_impl_data" = type { ptr, ptr, ptr }
%"class.std::vector.50" = type { %"struct.std::_Vector_base.51" }
%"struct.std::_Vector_base.51" = type { %"struct.std::_Vector_base<toml::v3::array *, std::allocator<toml::v3::array *>>::_Vector_impl" }
%"struct.std::_Vector_base<toml::v3::array *, std::allocator<toml::v3::array *>>::_Vector_impl" = type { %"struct.std::_Vector_base<toml::v3::array *, std::allocator<toml::v3::array *>>::_Vector_impl_data" }
%"struct.std::_Vector_base<toml::v3::array *, std::allocator<toml::v3::array *>>::_Vector_impl_data" = type { ptr, ptr, ptr }
%"struct.(anonymous namespace)::parse_key_buffer" = type { %"class.std::__cxx11::basic_string", %"class.std::vector.55", %"class.std::vector.60", %"class.std::vector.60" }
%"class.std::vector.55" = type { %"struct.std::_Vector_base.56" }
%"struct.std::_Vector_base.56" = type { %"struct.std::_Vector_base<std::pair<unsigned long, unsigned long>, std::allocator<std::pair<unsigned long, unsigned long>>>::_Vector_impl" }
%"struct.std::_Vector_base<std::pair<unsigned long, unsigned long>, std::allocator<std::pair<unsigned long, unsigned long>>>::_Vector_impl" = type { %"struct.std::_Vector_base<std::pair<unsigned long, unsigned long>, std::allocator<std::pair<unsigned long, unsigned long>>>::_Vector_impl_data" }
%"struct.std::_Vector_base<std::pair<unsigned long, unsigned long>, std::allocator<std::pair<unsigned long, unsigned long>>>::_Vector_impl_data" = type { ptr, ptr, ptr }
%"class.std::vector.60" = type { %"struct.std::_Vector_base.61" }
%"struct.std::_Vector_base.61" = type { %"struct.std::_Vector_base<toml::v3::source_position, std::allocator<toml::v3::source_position>>::_Vector_impl" }
%"struct.std::_Vector_base<toml::v3::source_position, std::allocator<toml::v3::source_position>>::_Vector_impl" = type { %"struct.std::_Vector_base<toml::v3::source_position, std::allocator<toml::v3::source_position>>::_Vector_impl_data" }
%"struct.std::_Vector_base<toml::v3::source_position, std::allocator<toml::v3::source_position>>::_Vector_impl_data" = type { ptr, ptr, ptr }
%"struct.(anonymous namespace)::error_builder" = type { [512 x i8], ptr, ptr }

@.str.54 = private unnamed_addr constant [3 x i8] c": \00", align 1
@.str.67 = private unnamed_addr constant [21 x i8] c"Error while parsing \00", align 1

; Function Attrs: mustprogress nounwind uwtable
define linkonce_odr noundef ptr @_ZNKSt17basic_string_viewIcSt11char_traitsIcEE4dataEv(ptr noundef nonnull align 8 dereferenceable(16) %0) #2 comdat align 2 {
  %2 = alloca ptr, align 8
  store ptr %0, ptr %2, align 8, !tbaa !12
  %3 = load ptr, ptr %2, align 8
  %4 = getelementptr inbounds nuw %"class.std::basic_string_view", ptr %3, i32 0, i32 1
  %5 = load ptr, ptr %4, align 8, !tbaa !14
  ret ptr %5
}

; Function Attrs: mustprogress nounwind uwtable
define linkonce_odr noundef i64 @_ZNKSt17basic_string_viewIcSt11char_traitsIcEE6lengthEv(ptr noundef nonnull align 8 dereferenceable(16) %0) #2 comdat align 2 {
  %2 = alloca ptr, align 8
  store ptr %0, ptr %2, align 8, !tbaa !12
  %3 = load ptr, ptr %2, align 8
  %4 = getelementptr inbounds nuw %"class.std::basic_string_view", ptr %3, i32 0, i32 0
  %5 = load i64, ptr %4, align 8, !tbaa !16
  ret i64 %5
}

; Function Attrs: mustprogress nounwind uwtable
define linkonce_odr void @_ZNSt17basic_string_viewIcSt11char_traitsIcEEC2EPKcm(ptr noundef nonnull align 8 dereferenceable(16) %0, ptr noundef %1, i64 noundef %2) unnamed_addr #2 comdat align 2 {
  %4 = alloca ptr, align 8
  %5 = alloca ptr, align 8
  %6 = alloca i64, align 8
  store ptr %0, ptr %4, align 8, !tbaa !12
  store ptr %1, ptr %5, align 8, !tbaa !8
  store i64 %2, ptr %6, align 8, !tbaa !10
  %7 = load ptr, ptr %4, align 8
  %8 = getelementptr inbounds nuw %"class.std::basic_string_view", ptr %7, i32 0, i32 0
  %9 = load i64, ptr %6, align 8, !tbaa !10
  store i64 %9, ptr %8, align 8, !tbaa !16
  %10 = getelementptr inbounds nuw %"class.std::basic_string_view", ptr %7, i32 0, i32 1
  %11 = load ptr, ptr %5, align 8, !tbaa !8
  store ptr %11, ptr %10, align 8, !tbaa !14
  ret void
}

; Function Attrs: mustprogress nounwind uwtable
define internal void @_ZN12_GLOBAL__N_111concatenateISt17basic_string_viewIcSt11char_traitsIcEEEEvRPcS5_RKT_(ptr noundef nonnull align 8 dereferenceable(8) %0, ptr noundef nonnull %1, ptr noundef nonnull align 8 dereferenceable(16) %2) #2 {
  %4 = alloca ptr, align 8
  %5 = alloca ptr, align 8
  %6 = alloca ptr, align 8
  %7 = alloca i64, align 8
  %8 = alloca i64, align 8
  store ptr %0, ptr %4, align 8, !tbaa !476
  store ptr %1, ptr %5, align 8, !tbaa !8
  store ptr %2, ptr %6, align 8, !tbaa !12
  %9 = load ptr, ptr %4, align 8, !tbaa !476
  %10 = load ptr, ptr %9, align 8, !tbaa !8
  %11 = load ptr, ptr %5, align 8, !tbaa !8
  %12 = icmp uge ptr %10, %11
  %13 = xor i1 %12, true
  %14 = xor i1 %13, true
  %15 = zext i1 %14 to i64
  %16 = call i64 @llvm.expect.i64(i64 %15, i64 0)
  %17 = icmp ne i64 %16, 0
  br i1 %17, label %18, label %19

18:                                               ; preds = %3
  br label %46

19:                                               ; preds = %3
  call void @llvm.lifetime.start.p0(i64 8, ptr %7) #36
  %20 = load ptr, ptr %5, align 8, !tbaa !8
  %21 = load ptr, ptr %4, align 8, !tbaa !476
  %22 = load ptr, ptr %21, align 8, !tbaa !8
  %23 = ptrtoint ptr %20 to i64
  %24 = ptrtoint ptr %22 to i64
  %25 = sub i64 %23, %24
  store i64 %25, ptr %7, align 8, !tbaa !10
  call void @llvm.lifetime.start.p0(i64 8, ptr %8) #36
  %26 = load i64, ptr %7, align 8, !tbaa !10
  %27 = load ptr, ptr %6, align 8, !tbaa !12
  %28 = call noundef i64 @_ZNKSt17basic_string_viewIcSt11char_traitsIcEE6lengthEv(ptr noundef nonnull align 8 dereferenceable(16) %27) #36
  %29 = icmp ult i64 %26, %28
  br i1 %29, label %30, label %32

30:                                               ; preds = %19
  %31 = load i64, ptr %7, align 8, !tbaa !10
  br label %35

32:                                               ; preds = %19
  %33 = load ptr, ptr %6, align 8, !tbaa !12
  %34 = call noundef i64 @_ZNKSt17basic_string_viewIcSt11char_traitsIcEE6lengthEv(ptr noundef nonnull align 8 dereferenceable(16) %33) #36
  br label %35

35:                                               ; preds = %32, %30
  %36 = phi i64 [ %31, %30 ], [ %34, %32 ]
  store i64 %36, ptr %8, align 8, !tbaa !10
  %37 = load ptr, ptr %4, align 8, !tbaa !476
  %38 = load ptr, ptr %37, align 8, !tbaa !8
  %39 = load ptr, ptr %6, align 8, !tbaa !12
  %40 = call noundef ptr @_ZNKSt17basic_string_viewIcSt11char_traitsIcEE4dataEv(ptr noundef nonnull align 8 dereferenceable(16) %39) #36
  %41 = load i64, ptr %8, align 8, !tbaa !10
  call void @llvm.memcpy.p0.p0.i64(ptr align 1 %38, ptr align 1 %40, i64 %41, i1 false)
  %42 = load i64, ptr %8, align 8, !tbaa !10
  %43 = load ptr, ptr %4, align 8, !tbaa !476
  %44 = load ptr, ptr %43, align 8, !tbaa !8
  %45 = getelementptr inbounds nuw i8, ptr %44, i64 %42
  store ptr %45, ptr %43, align 8, !tbaa !8
  call void @llvm.lifetime.end.p0(i64 8, ptr %8) #36
  call void @llvm.lifetime.end.p0(i64 8, ptr %7) #36
  br label %46

46:                                               ; preds = %35, %18
  ret void
}

; Function Attrs: inlinehint mustprogress nounwind uwtable
define linkonce_odr { i64, ptr } @_ZNSt8literals20string_view_literalsli2svEPKcm(ptr noundef %0, i64 noundef %1) #3 comdat {
  %3 = alloca %"class.std::basic_string_view", align 8
  %4 = alloca ptr, align 8
  %5 = alloca i64, align 8
  store ptr %0, ptr %4, align 8, !tbaa !8
  store i64 %1, ptr %5, align 8, !tbaa !10
  %6 = load ptr, ptr %4, align 8, !tbaa !8
  %7 = load i64, ptr %5, align 8, !tbaa !10
  call void @_ZNSt17basic_string_viewIcSt11char_traitsIcEEC2EPKcm(ptr noundef nonnull align 8 dereferenceable(16) %3, ptr noundef %6, i64 noundef %7) #36
  %8 = load { i64, ptr }, ptr %3, align 8
  ret { i64, ptr } %8
}

; Function Attrs: alwaysinline mustprogress nounwind willreturn memory(read) uwtable
define internal noundef nonnull align 8 dereferenceable(16) ptr @_ZNK12_GLOBAL__N_120utf8_buffered_reader11source_pathB5cxx11Ev(ptr noundef nonnull align 8 dereferenceable(3088) %0) #5 align 2 {
  %2 = alloca ptr, align 8
  store ptr %0, ptr %2, align 8, !tbaa !552
  %3 = load ptr, ptr %2, align 8
  %4 = getelementptr inbounds nuw %"class.(anonymous namespace)::utf8_buffered_reader", ptr %3, i32 0, i32 0
  %5 = load ptr, ptr %4, align 8, !tbaa !558
  %6 = load ptr, ptr %5, align 8, !tbaa !73
  %7 = getelementptr inbounds ptr, ptr %6, i64 0
  %8 = load ptr, ptr %7, align 8
  %9 = call noundef nonnull align 8 dereferenceable(16) ptr %8(ptr noundef nonnull align 8 dereferenceable(8) %5) #36
  ret ptr %9
}

; Function Attrs: mustprogress nounwind uwtable
define internal void @_ZN12_GLOBAL__N_113error_builder6appendISt17basic_string_viewIcSt11char_traitsIcEEEEvRKT_(ptr noundef nonnull align 8 dereferenceable(528) %0, ptr noundef nonnull align 8 dereferenceable(16) %1) #2 align 2 {
  %3 = alloca ptr, align 8
  %4 = alloca ptr, align 8
  store ptr %0, ptr %3, align 8, !tbaa !564
  store ptr %1, ptr %4, align 8, !tbaa !12
  %5 = load ptr, ptr %3, align 8
  %6 = getelementptr inbounds nuw %"struct.(anonymous namespace)::error_builder", ptr %5, i32 0, i32 1
  %7 = getelementptr inbounds nuw %"struct.(anonymous namespace)::error_builder", ptr %5, i32 0, i32 2
  %8 = load ptr, ptr %7, align 8, !tbaa !568
  %9 = load ptr, ptr %4, align 8, !tbaa !12
  call void @_ZN12_GLOBAL__N_111concatenateISt17basic_string_viewIcSt11char_traitsIcEEEEvRPcS5_RKT_(ptr noundef nonnull align 8 dereferenceable(8) %6, ptr noundef %8, ptr noundef nonnull align 8 dereferenceable(16) %9) #36
  ret void
}

; Function Attrs: mustprogress nounwind uwtable
define internal void @_ZN12_GLOBAL__N_113error_builderC2ESt17basic_string_viewIcSt11char_traitsIcEE(ptr noundef nonnull align 8 dereferenceable(528) %0, i64 %1, ptr %2) unnamed_addr #2 align 2 {
  %4 = alloca %"class.std::basic_string_view", align 8
  %5 = alloca ptr, align 8
  %6 = alloca %"class.std::basic_string_view", align 8
  %7 = alloca %"class.std::basic_string_view", align 8
  %8 = getelementptr inbounds nuw { i64, ptr }, ptr %4, i32 0, i32 0
  store i64 %1, ptr %8, align 8
  %9 = getelementptr inbounds nuw { i64, ptr }, ptr %4, i32 0, i32 1
  store ptr %2, ptr %9, align 8
  store ptr %0, ptr %5, align 8, !tbaa !564
  %10 = load ptr, ptr %5, align 8
  %11 = getelementptr inbounds nuw %"struct.(anonymous namespace)::error_builder", ptr %10, i32 0, i32 1
  %12 = getelementptr inbounds nuw %"struct.(anonymous namespace)::error_builder", ptr %10, i32 0, i32 0
  %13 = getelementptr inbounds [512 x i8], ptr %12, i64 0, i64 0
  store ptr %13, ptr %11, align 8, !tbaa !566
  %14 = getelementptr inbounds nuw %"struct.(anonymous namespace)::error_builder", ptr %10, i32 0, i32 2
  %15 = getelementptr inbounds nuw %"struct.(anonymous namespace)::error_builder", ptr %10, i32 0, i32 0
  %16 = getelementptr inbounds [512 x i8], ptr %15, i64 0, i64 0
  %17 = getelementptr inbounds nuw i8, ptr %16, i64 511
  store ptr %17, ptr %14, align 8, !tbaa !568
  %18 = getelementptr inbounds nuw %"struct.(anonymous namespace)::error_builder", ptr %10, i32 0, i32 1
  %19 = getelementptr inbounds nuw %"struct.(anonymous namespace)::error_builder", ptr %10, i32 0, i32 2
  %20 = load ptr, ptr %19, align 8, !tbaa !568
  call void @llvm.lifetime.start.p0(i64 16, ptr %6) #36
  %21 = call { i64, ptr } @_ZNSt8literals20string_view_literalsli2svEPKcm(ptr noundef @.str.67, i64 noundef 20) #36
  %22 = getelementptr inbounds nuw { i64, ptr }, ptr %6, i32 0, i32 0
  %23 = extractvalue { i64, ptr } %21, 0
  store i64 %23, ptr %22, align 8
  %24 = getelementptr inbounds nuw { i64, ptr }, ptr %6, i32 0, i32 1
  %25 = extractvalue { i64, ptr } %21, 1
  store ptr %25, ptr %24, align 8
  call void @_ZN12_GLOBAL__N_111concatenateISt17basic_string_viewIcSt11char_traitsIcEEEEvRPcS5_RKT_(ptr noundef nonnull align 8 dereferenceable(8) %18, ptr noundef %20, ptr noundef nonnull align 8 dereferenceable(16) %6) #36
  call void @llvm.lifetime.end.p0(i64 16, ptr %6) #36
  %26 = getelementptr inbounds nuw %"struct.(anonymous namespace)::error_builder", ptr %10, i32 0, i32 1
  %27 = getelementptr inbounds nuw %"struct.(anonymous namespace)::error_builder", ptr %10, i32 0, i32 2
  %28 = load ptr, ptr %27, align 8, !tbaa !568
  call void @_ZN12_GLOBAL__N_111concatenateISt17basic_string_viewIcSt11char_traitsIcEEEEvRPcS5_RKT_(ptr noundef nonnull align 8 dereferenceable(8) %26, ptr noundef %28, ptr noundef nonnull align 8 dereferenceable(16) %4) #36
  %29 = getelementptr inbounds nuw %"struct.(anonymous namespace)::error_builder", ptr %10, i32 0, i32 1
  %30 = getelementptr inbounds nuw %"struct.(anonymous namespace)::error_builder", ptr %10, i32 0, i32 2
  %31 = load ptr, ptr %30, align 8, !tbaa !568
  call void @llvm.lifetime.start.p0(i64 16, ptr %7) #36
  %32 = call { i64, ptr } @_ZNSt8literals20string_view_literalsli2svEPKcm(ptr noundef @.str.54, i64 noundef 2) #36
  %33 = getelementptr inbounds nuw { i64, ptr }, ptr %7, i32 0, i32 0
  %34 = extractvalue { i64, ptr } %32, 0
  store i64 %34, ptr %33, align 8
  %35 = getelementptr inbounds nuw { i64, ptr }, ptr %7, i32 0, i32 1
  %36 = extractvalue { i64, ptr } %32, 1
  store ptr %36, ptr %35, align 8
  call void @_ZN12_GLOBAL__N_111concatenateISt17basic_string_viewIcSt11char_traitsIcEEEEvRPcS5_RKT_(ptr noundef nonnull align 8 dereferenceable(8) %29, ptr noundef %31, ptr noundef nonnull align 8 dereferenceable(16) %7) #36
  call void @llvm.lifetime.end.p0(i64 16, ptr %7) #36
  ret void
}

; Function Attrs: mustprogress noinline noreturn uwtable
define internal void @_ZNK4toml2v34impl7impl_ex6parser12set_error_atIJSt17basic_string_viewIcSt11char_traitsIcEEN12_GLOBAL__N_117escaped_codepointES8_EEEvNS0_15source_positionEDpRKT_(ptr noundef nonnull align 8 dereferenceable(3496) %0, i64 %1, ptr noundef nonnull align 8 dereferenceable(16) %2, ptr noundef nonnull align 8 dereferenceable(8) %3, ptr noundef nonnull align 8 dereferenceable(16) %4) #30 align 2 {
  %6 = alloca %"struct.toml::v3::source_position", align 4
  %7 = alloca ptr, align 8
  %8 = alloca ptr, align 8
  %9 = alloca ptr, align 8
  %10 = alloca ptr, align 8
  %11 = alloca %"struct.(anonymous namespace)::error_builder", align 8
  %12 = alloca %"class.std::basic_string_view", align 8
  store i64 %1, ptr %6, align 4
  store ptr %0, ptr %7, align 8, !tbaa !283
  store ptr %2, ptr %8, align 8, !tbaa !12
  store ptr %3, ptr %9, align 8, !tbaa !560
  store ptr %4, ptr %10, align 8, !tbaa !12
  %13 = load ptr, ptr %7, align 8
  call void @llvm.lifetime.start.p0(i64 528, ptr %11) #36
  %14 = getelementptr inbounds nuw %"class.toml::v3::impl::impl_ex::parser", ptr %13, i32 0, i32 13
  call void @llvm.memcpy.p0.p0.i64(ptr align 8 %12, ptr align 8 %14, i64 16, i1 false), !tbaa.struct !150
  %15 = getelementptr inbounds nuw { i64, ptr }, ptr %12, i32 0, i32 0
  %16 = load i64, ptr %15, align 8
  %17 = getelementptr inbounds nuw { i64, ptr }, ptr %12, i32 0, i32 1
  %18 = load ptr, ptr %17, align 8
  call void @_ZN12_GLOBAL__N_113error_builderC2ESt17basic_string_viewIcSt11char_traitsIcEE(ptr noundef nonnull align 8 dereferenceable(528) %11, i64 %16, ptr %18) #36
  %19 = load ptr, ptr %8, align 8, !tbaa !12
  call void @_ZN12_GLOBAL__N_113error_builder6appendISt17basic_string_viewIcSt11char_traitsIcEEEEvRKT_(ptr noundef nonnull align 8 dereferenceable(528) %11, ptr noundef nonnull align 8 dereferenceable(16) %19) #36
  %20 = load ptr, ptr %9, align 8, !tbaa !560
  call void @_ZN12_GLOBAL__N_113error_builder6appendINS_17escaped_codepointEEEvRKT_(ptr noundef nonnull align 8 dereferenceable(528) %11, ptr noundef nonnull align 8 dereferenceable(8) %20) #36
  %21 = load ptr, ptr %10, align 8, !tbaa !12
  call void @_ZN12_GLOBAL__N_113error_builder6appendISt17basic_string_viewIcSt11char_traitsIcEEEEvRKT_(ptr noundef nonnull align 8 dereferenceable(528) %11, ptr noundef nonnull align 8 dereferenceable(16) %21) #36
  %22 = getelementptr inbounds nuw %"class.toml::v3::impl::impl_ex::parser", ptr %13, i32 0, i32 0
  %23 = call noundef nonnull align 8 dereferenceable(16) ptr @_ZNK12_GLOBAL__N_120utf8_buffered_reader11source_pathB5cxx11Ev(ptr noundef nonnull align 8 dereferenceable(3088) %22) #37
  call void @_ZNK12_GLOBAL__N_113error_builder6finishERKN4toml2v315source_positionERKSt10shared_ptrIKNSt7__cxx1112basic_stringIcSt11char_traitsIcESaIcEEEE(ptr noundef nonnull align 8 dereferenceable(528) %11, ptr noundef nonnull align 4 dereferenceable(8) %6, ptr noundef nonnull align 8 dereferenceable(16) %23) #40
  unreachable
}