; Function Attrs: mustprogress noinline noreturn uwtable
define internal fastcc void @_ZNK4toml2v34impl7impl_ex6parser12set_error_atIJSt17basic_string_viewIcSt11char_traitsIcEEN12_GLOBAL__N_117escaped_codepointES8_EEEvNS0_15source_positionEDpRKT_(ptr noundef nonnull readonly align 8 captures(none) dereferenceable(3496) %0, i64 %1, ptr noundef nonnull readonly align 8 captures(none) dereferenceable(16) %2, ptr noundef nonnull readonly align 8 captures(none) dereferenceable(8) %3, ptr noundef nonnull readonly align 8 captures(none) dereferenceable(16) %4) unnamed_addr #35 align 2 {
  %6 = alloca %"struct.toml::v3::source_position", align 8
  %7 = alloca %"struct.(anonymous namespace)::error_builder", align 8
  store i64 %1, ptr %6, align 8
  call void @llvm.lifetime.start.p0(i64 528, ptr nonnull %7) #50
  %8 = getelementptr inbounds nuw i8, ptr %0, i64 3472
  %.sroa.0.0.copyload = load i64, ptr %8, align 8, !tbaa !114
  %.sroa.2.0..sroa_idx = getelementptr inbounds nuw i8, ptr %0, i64 3480
  %.sroa.2.0.copyload = load ptr, ptr %.sroa.2.0..sroa_idx, align 8, !tbaa !115
  %9 = getelementptr inbounds nuw i8, ptr %7, i64 512
  %10 = getelementptr inbounds nuw i8, ptr %7, i64 520
  %11 = getelementptr inbounds nuw i8, ptr %7, i64 511
  store ptr %11, ptr %10, align 8, !tbaa !557
  call void @llvm.memcpy.p0.p0.i64(ptr noundef nonnull align 8 dereferenceable(528) %7, ptr noundef nonnull readonly align 1 dereferenceable(20) @.str.67, i64 20, i1 false)
  %12 = getelementptr inbounds nuw i8, ptr %7, i64 20
  store ptr %12, ptr %9, align 8, !tbaa !115
  %spec.select.i7.i = call i64 @llvm.umin.i64(i64 %.sroa.0.0.copyload, i64 491)
  call void @llvm.memcpy.p0.p0.i64(ptr nonnull align 4 %12, ptr readonly align 1 %.sroa.2.0.copyload, i64 %spec.select.i7.i, i1 false)
  %13 = load ptr, ptr %9, align 8, !tbaa !115
  %14 = getelementptr inbounds nuw i8, ptr %13, i64 %spec.select.i7.i
  store ptr %14, ptr %9, align 8, !tbaa !115
  %15 = load ptr, ptr %10, align 8, !tbaa !557
  %.not.i9.i = icmp ult ptr %14, %15
  br i1 %.not.i9.i, label %16, label %_ZN12_GLOBAL__N_113error_builderC2ESt17basic_string_viewIcSt11char_traitsIcEE.exit, !prof !171

16:                                               ; preds = %5
  %17 = ptrtoint ptr %15 to i64
  %18 = ptrtoint ptr %14 to i64
  %19 = sub i64 %17, %18
  %spec.select.i10.i = call i64 @llvm.umin.i64(i64 %19, i64 2)
  call void @llvm.memcpy.p0.p0.i64(ptr align 1 %14, ptr nonnull readonly align 1 @.str.54, i64 %spec.select.i10.i, i1 false)
  %20 = load ptr, ptr %9, align 8, !tbaa !115
  %21 = getelementptr inbounds nuw i8, ptr %20, i64 %spec.select.i10.i
  store ptr %21, ptr %9, align 8, !tbaa !115
  %.pre = load ptr, ptr %10, align 8, !tbaa !557
  br label %_ZN12_GLOBAL__N_113error_builderC2ESt17basic_string_viewIcSt11char_traitsIcEE.exit

_ZN12_GLOBAL__N_113error_builderC2ESt17basic_string_viewIcSt11char_traitsIcEE.exit: ; preds = %5, %16
  %22 = phi ptr [ %14, %5 ], [ %21, %16 ]
  %23 = phi ptr [ %15, %5 ], [ %.pre, %16 ]
  %.not.i.i = icmp ult ptr %22, %23
  br i1 %.not.i.i, label %24, label %_ZN12_GLOBAL__N_113error_builder6appendISt17basic_string_viewIcSt11char_traitsIcEEEEvRKT_.exit, !prof !171

24:                                               ; preds = %_ZN12_GLOBAL__N_113error_builderC2ESt17basic_string_viewIcSt11char_traitsIcEE.exit
  %25 = getelementptr inbounds nuw i8, ptr %2, i64 8
  %.val4 = load ptr, ptr %25, align 8
  %.val = load i64, ptr %2, align 8
  %26 = ptrtoint ptr %23 to i64
  %27 = ptrtoint ptr %22 to i64
  %28 = sub i64 %26, %27
  %spec.select.i.i = call i64 @llvm.umin.i64(i64 %28, i64 %.val)
  call void @llvm.memcpy.p0.p0.i64(ptr align 1 %22, ptr readonly align 1 %.val4, i64 %spec.select.i.i, i1 false)
  %29 = load ptr, ptr %9, align 8, !tbaa !115
  %30 = getelementptr inbounds nuw i8, ptr %29, i64 %spec.select.i.i
  store ptr %30, ptr %9, align 8, !tbaa !115
  br label %_ZN12_GLOBAL__N_113error_builder6appendISt17basic_string_viewIcSt11char_traitsIcEEEEvRKT_.exit

_ZN12_GLOBAL__N_113error_builder6appendISt17basic_string_viewIcSt11char_traitsIcEEEEvRKT_.exit: ; preds = %_ZN12_GLOBAL__N_113error_builderC2ESt17basic_string_viewIcSt11char_traitsIcEE.exit, %24
  %.val7 = load ptr, ptr %3, align 8
  call fastcc void @_ZN12_GLOBAL__N_113error_builder6appendINS_17escaped_codepointEEEvRKT_(ptr noundef nonnull align 8 dereferenceable(528) %7, ptr %.val7) #50
  %31 = load ptr, ptr %10, align 8, !tbaa !557
  %32 = load ptr, ptr %9, align 8, !tbaa !115
  %.not.i.i8 = icmp ult ptr %32, %31
  br i1 %.not.i.i8, label %33, label %_ZN12_GLOBAL__N_113error_builder6appendISt17basic_string_viewIcSt11char_traitsIcEEEEvRKT_.exit10, !prof !171

33:                                               ; preds = %_ZN12_GLOBAL__N_113error_builder6appendISt17basic_string_viewIcSt11char_traitsIcEEEEvRKT_.exit
  %34 = getelementptr inbounds nuw i8, ptr %4, i64 8
  %.val6 = load ptr, ptr %34, align 8
  %.val5 = load i64, ptr %4, align 8
  %35 = ptrtoint ptr %31 to i64
  %36 = ptrtoint ptr %32 to i64
  %37 = sub i64 %35, %36
  %spec.select.i.i9 = call i64 @llvm.umin.i64(i64 %37, i64 %.val5)
  call void @llvm.memcpy.p0.p0.i64(ptr align 1 %32, ptr readonly align 1 %.val6, i64 %spec.select.i.i9, i1 false)
  %38 = load ptr, ptr %9, align 8, !tbaa !115
  %39 = getelementptr inbounds nuw i8, ptr %38, i64 %spec.select.i.i9
  store ptr %39, ptr %9, align 8, !tbaa !115
  br label %_ZN12_GLOBAL__N_113error_builder6appendISt17basic_string_viewIcSt11char_traitsIcEEEEvRKT_.exit10

_ZN12_GLOBAL__N_113error_builder6appendISt17basic_string_viewIcSt11char_traitsIcEEEEvRKT_.exit10: ; preds = %_ZN12_GLOBAL__N_113error_builder6appendISt17basic_string_viewIcSt11char_traitsIcEEEEvRKT_.exit, %33
  %40 = load ptr, ptr %0, align 8, !tbaa !382
  %41 = load ptr, ptr %40, align 8, !tbaa !44
  %42 = load ptr, ptr %41, align 8
  %43 = call noundef nonnull align 8 dereferenceable(16) ptr %42(ptr noundef nonnull align 8 dereferenceable(8) %40) #50
  call fastcc void @_ZNK12_GLOBAL__N_113error_builder6finishERKN4toml2v315source_positionERKSt10shared_ptrIKNSt7__cxx1112basic_stringIcSt11char_traitsIcESaIcEEEE(ptr noundef nonnull align 8 dereferenceable(528) %7, ptr noundef nonnull align 4 dereferenceable(8) %6, ptr noundef nonnull align 8 dereferenceable(16) %43) #54
  unreachable
}